target datalayout = "e-m:e-p270:32:32-p271:32:32-p272:64:64-i64:64-i128:128-f80:128-n8:16:32:64-S128"
target triple = "x86_64-pc-linux-gnu"

%struct.expert_field = type { i32, i32 }
%struct._fc_data = type { i32, i8 }
%struct._packet_info = type { ptr, ptr, i32, i32, %struct.nstime_t, %struct.nstime_t, %struct.nstime_t, i32, ptr, ptr, ptr, ptr, %struct._address, %struct._address, %struct._address, %struct._address, %struct._address, %struct._address, i32, ptr, i32, %struct.anon, i32, i32, i32, i32, ptr, i32, ptr, ptr, i16, i16, i32, i32, i16, i32, i32, ptr, ptr, ptr, i8, i8, i16, i16, i16, i32, i16, i16, ptr, ptr, ptr, ptr, ptr, i32 }
%struct.nstime_t = type { i64, i32 }
%struct._address = type { i32, i32, ptr, ptr }
%struct.anon = type { i8, [3 x i8] }

@ei_fccrc = internal global %struct.expert_field zeroinitializer, align 4
@hf_fcsof = internal global i32 0, align 4
@hf_fceof = internal global i32 0, align 4
@hf_fccrc = internal global i32 0, align 4
@hf_fccrc_status = internal global i32 0, align 4
@ett_fcsof = internal global i32 0, align 4
@.str.148 = private unnamed_addr constant [3 x i8] c"FC\00", align 1
@fc_handle = internal global ptr null, align 8
@proto_fcsof = internal global i32 0, align 4
@.str.236 = private unnamed_addr constant [5 x i8] c"0x%x\00", align 1
@.str.267 = private unnamed_addr constant [41 x i8] c"Fibre Channel Delimiter: SOF: %s EOF: %s\00", align 1

; Function Attrs: nounwind uwtable
define internal i32 @dissect_fcsof(ptr noundef %0, ptr noundef %1, ptr noundef %2, ptr noundef %3) #0 {
  %5 = alloca ptr, align 8
  %6 = alloca ptr, align 8
  %7 = alloca ptr, align 8
  %8 = alloca ptr, align 8
  %9 = alloca ptr, align 8
  %10 = alloca ptr, align 8
  %11 = alloca ptr, align 8
  %12 = alloca i32, align 4
  %13 = alloca i32, align 4
  %14 = alloca i32, align 4
  %15 = alloca i32, align 4
  %16 = alloca i32, align 4
  %17 = alloca i32, align 4
  %18 = alloca i32, align 4
  %19 = alloca i32, align 4
  %20 = alloca i32, align 4
  %21 = alloca %struct._fc_data, align 4
  store ptr %0, ptr %5, align 8
  store ptr %1, ptr %6, align 8
  store ptr %2, ptr %7, align 8
  store ptr %3, ptr %8, align 8
  store i32 8, ptr %15, align 4
  store i32 4, ptr %16, align 4
  %22 = load ptr, ptr %5, align 8
  %23 = call i32 @tvb_reported_length(ptr noundef %22)
  %24 = sub i32 %23, 8
  store i32 %24, ptr %17, align 4
  %25 = load i32, ptr %17, align 4
  %26 = add i32 %25, 4
  store i32 %26, ptr %18, align 4
  store i32 0, ptr %19, align 4
  %27 = load ptr, ptr %6, align 8
  %28 = getelementptr inbounds %struct._packet_info, ptr %27, i32 0, i32 1
  %29 = load ptr, ptr %28, align 8
  call void @col_set_str(ptr noundef %29, i32 noundef 34, ptr noundef @.str.148)
  %30 = load ptr, ptr %5, align 8
  %31 = call i32 @tvb_get_ntohl(ptr noundef %30, i32 noundef 0)
  store i32 %31, ptr %12, align 4
  %32 = load i32, ptr %17, align 4
  %33 = sub i32 %32, 4
  store i32 %33, ptr %20, align 4
  %34 = load ptr, ptr %5, align 8
  %35 = load i32, ptr %20, align 4
  %36 = call ptr @tvb_new_subset_length(ptr noundef %34, i32 noundef 4, i32 noundef %35)
  %37 = load i32, ptr %20, align 4
  %38 = call i32 @crc32_802_tvb(ptr noundef %36, i32 noundef %37)
  store i32 %38, ptr %13, align 4
  %39 = load ptr, ptr %5, align 8
  %40 = load i32, ptr %18, align 4
  %41 = call i32 @tvb_get_ntohl(ptr noundef %39, i32 noundef %40)
  store i32 %41, ptr %14, align 4
  %42 = load ptr, ptr %7, align 8
  %43 = load i32, ptr @proto_fcsof, align 4
  %44 = load ptr, ptr %5, align 8
  %45 = load i32, ptr %12, align 4
  %46 = call ptr @val_to_str(i32 noundef %45, ptr noundef @fc_sof_vals, ptr noundef @.str.236)
  %47 = load i32, ptr %14, align 4
  %48 = call ptr @val_to_str(i32 noundef %47, ptr noundef @fc_eof_vals, ptr noundef @.str.236)
  %49 = call ptr (ptr, i32, ptr, i32, i32, ptr, ...) @proto_tree_add_protocol_format(ptr noundef %42, i32 noundef %43, ptr noundef %44, i32 noundef 0, i32 noundef 4, ptr noundef @.str.267, ptr noundef %46, ptr noundef %48)
  store ptr %49, ptr %9, align 8
  %50 = load ptr, ptr %9, align 8
  %51 = load i32, ptr @ett_fcsof, align 4
  %52 = call ptr @proto_item_add_subtree(ptr noundef %50, i32 noundef %51)
  store ptr %52, ptr %10, align 8
  %53 = load ptr, ptr %10, align 8
  %54 = load i32, ptr @hf_fcsof, align 4
  %55 = load ptr, ptr %5, align 8
  %56 = load i32, ptr %19, align 4
  %57 = load i32, ptr %12, align 4
  %58 = call ptr @proto_tree_add_uint(ptr noundef %53, i32 noundef %54, ptr noundef %55, i32 noundef %56, i32 noundef 4, i32 noundef %57)
  %59 = load ptr, ptr %10, align 8
  %60 = load ptr, ptr %5, align 8
  %61 = load i32, ptr %17, align 4
  %62 = load i32, ptr @hf_fccrc, align 4
  %63 = load i32, ptr @hf_fccrc_status, align 4
  %64 = load ptr, ptr %6, align 8
  %65 = load i32, ptr %13, align 4
  %66 = call ptr @proto_tree_add_checksum(ptr noundef %59, ptr noundef %60, i32 noundef %61, i32 noundef %62, i32 noundef %63, ptr noundef @ei_fccrc, ptr noundef %64, i32 noundef %65, i32 noundef 0, i32 noundef 1)
  %67 = load ptr, ptr %10, align 8
  %68 = load i32, ptr @hf_fceof, align 4
  %69 = load ptr, ptr %5, align 8
  %70 = load i32, ptr %18, align 4
  %71 = load i32, ptr %14, align 4
  %72 = call ptr @proto_tree_add_uint(ptr noundef %67, i32 noundef %68, ptr noundef %69, i32 noundef %70, i32 noundef 4, i32 noundef %71)
  %73 = load ptr, ptr %5, align 8
  %74 = load i32, ptr %17, align 4
  %75 = sub i32 %74, 4
  %76 = call ptr @tvb_new_subset_length(ptr noundef %73, i32 noundef 4, i32 noundef %75)
  store ptr %76, ptr %11, align 8
  %77 = getelementptr inbounds %struct._fc_data, ptr %21, i32 0, i32 0
  store i32 0, ptr %77, align 4
  %78 = getelementptr inbounds %struct._fc_data, ptr %21, i32 0, i32 1
  store i8 0, ptr %78, align 4
  %79 = load i32, ptr %12, align 4
  %80 = icmp eq i32 %79, -1128966827
  br i1 %80, label %84, label %81

81:                                               ; preds = %4
  %82 = load i32, ptr %12, align 4
  %83 = icmp eq i32 %82, -1128966570
  br i1 %83, label %84, label %86

84:                                               ; preds = %81, %4
  %85 = getelementptr inbounds %struct._fc_data, ptr %21, i32 0, i32 1
  store i8 1, ptr %85, align 4
  br label %92

86:                                               ; preds = %81
  %87 = load i32, ptr %12, align 4
  %88 = icmp eq i32 %87, -1128966056
  br i1 %88, label %89, label %91

89:                                               ; preds = %86
  %90 = getelementptr inbounds %struct._fc_data, ptr %21, i32 0, i32 1
  store i8 2, ptr %90, align 4
  br label %91

91:                                               ; preds = %89, %86
  br label %92

92:                                               ; preds = %91, %84
  %93 = load i32, ptr %14, align 4
  %94 = icmp eq i32 %93, -1128958603
  br i1 %94, label %98, label %95

95:                                               ; preds = %92
  %96 = load i32, ptr %14, align 4
  %97 = icmp eq i32 %96, -1131055755
  br i1 %97, label %98, label %104

98:                                               ; preds = %95, %92
  %99 = getelementptr inbounds %struct._fc_data, ptr %21, i32 0, i32 1
  %100 = load i8, ptr %99, align 4
  %101 = zext i8 %100 to i32
  %102 = or i32 %101, 128
  %103 = trunc i32 %102 to i8
  store i8 %103, ptr %99, align 4
  br label %117

104:                                              ; preds = %95
  %105 = load i32, ptr %14, align 4
  %106 = icmp eq i32 %105, -1131768427
  br i1 %106, label %110, label %107

107:                                              ; preds = %104
  %108 = load i32, ptr %14, align 4
  %109 = icmp eq i32 %108, -1129671275
  br i1 %109, label %110, label %116

110:                                              ; preds = %107, %104
  %111 = getelementptr inbounds %struct._fc_data, ptr %21, i32 0, i32 1
  %112 = load i8, ptr %111, align 4
  %113 = zext i8 %112 to i32
  %114 = or i32 %113, 64
  %115 = trunc i32 %114 to i8
  store i8 %115, ptr %111, align 4
  br label %116

116:                                              ; preds = %110, %107
  br label %117

117:                                              ; preds = %116, %98
  %118 = load ptr, ptr @fc_handle, align 8
  %119 = load ptr, ptr %11, align 8
  %120 = load ptr, ptr %6, align 8
  %121 = load ptr, ptr %7, align 8
  %122 = call i32 @call_dissector_with_data(ptr noundef %118, ptr noundef %119, ptr noundef %120, ptr noundef %121, ptr noundef %21)
  %123 = load ptr, ptr %5, align 8
  %124 = call i32 @tvb_captured_length(ptr noundef %123)
  ret i32 %124
}