; Function Attrs: nounwind uwtable
define internal i32 @dissect_fcsof(ptr noundef %0, ptr noundef %1, ptr noundef %2, ptr readnone captures(none) %3) #0 {
  %5 = alloca %struct._fc_data, align 4
  %6 = tail call i32 @tvb_reported_length(ptr noundef %0) #4
  %7 = add i32 %6, -8
  %8 = add i32 %6, -4
  %9 = getelementptr inbounds nuw i8, ptr %1, i64 8
  %10 = load ptr, ptr %9, align 8
  tail call void @col_set_str(ptr noundef %10, i32 noundef 34, ptr noundef nonnull @.str.148) #4
  %11 = tail call i32 @tvb_get_ntohl(ptr noundef %0, i32 noundef 0) #4
  %12 = add i32 %6, -12
  %13 = tail call ptr @tvb_new_subset_length(ptr noundef %0, i32 noundef 4, i32 noundef %12) #4
  %14 = tail call i32 @crc32_802_tvb(ptr noundef %13, i32 noundef %12) #4
  %15 = tail call i32 @tvb_get_ntohl(ptr noundef %0, i32 noundef %8) #4
  %16 = load i32, ptr @proto_fcsof, align 4
  %17 = tail call ptr @val_to_str(i32 noundef %11, ptr noundef nonnull @fc_sof_vals, ptr noundef nonnull @.str.236) #4
  %18 = tail call ptr @val_to_str(i32 noundef %15, ptr noundef nonnull @fc_eof_vals, ptr noundef nonnull @.str.236) #4
  %19 = tail call ptr (ptr, i32, ptr, i32, i32, ptr, ...) @proto_tree_add_protocol_format(ptr noundef %2, i32 noundef %16, ptr noundef %0, i32 noundef 0, i32 noundef 4, ptr noundef nonnull @.str.267, ptr noundef %17, ptr noundef %18) #4
  %20 = load i32, ptr @ett_fcsof, align 4
  %21 = tail call ptr @proto_item_add_subtree(ptr noundef %19, i32 noundef %20) #4
  %22 = load i32, ptr @hf_fcsof, align 4
  %23 = tail call ptr @proto_tree_add_uint(ptr noundef %21, i32 noundef %22, ptr noundef %0, i32 noundef 0, i32 noundef 4, i32 noundef %11) #4
  %24 = load i32, ptr @hf_fccrc, align 4
  %25 = load i32, ptr @hf_fccrc_status, align 4
  %26 = tail call ptr @proto_tree_add_checksum(ptr noundef %21, ptr noundef %0, i32 noundef %7, i32 noundef %24, i32 noundef %25, ptr noundef nonnull @ei_fccrc, ptr noundef %1, i32 noundef %14, i32 noundef 0, i32 noundef 1) #4
  %27 = load i32, ptr @hf_fceof, align 4
  %28 = tail call ptr @proto_tree_add_uint(ptr noundef %21, i32 noundef %27, ptr noundef %0, i32 noundef %8, i32 noundef 4, i32 noundef %15) #4
  %29 = tail call ptr @tvb_new_subset_length(ptr noundef %0, i32 noundef 4, i32 noundef %12) #4
  store i32 0, ptr %5, align 4
  %30 = getelementptr inbounds nuw i8, ptr %5, i64 4
  store i8 0, ptr %30, align 4
  switch i32 %11, label %32 [
    i32 -1128966570, label %.sink.split
    i32 -1128966827, label %.sink.split
    i32 -1128966056, label %31
  ]

31:                                               ; preds = %4
  br label %.sink.split

.sink.split:                                      ; preds = %4, %4, %31
  %.sink = phi i8 [ 2, %31 ], [ 1, %4 ], [ 1, %4 ]
  store i8 %.sink, ptr %30, align 4
  br label %32

32:                                               ; preds = %.sink.split, %4
  %33 = phi i8 [ 0, %4 ], [ %.sink, %.sink.split ]
  %34 = and i32 %15, -2097153
  switch i32 %34, label %37 [
    i32 -1131055755, label %.sink.split46
    i32 -1131768427, label %35
  ]

35:                                               ; preds = %32
  br label %.sink.split46

.sink.split46:                                    ; preds = %32, %35
  %.sink48 = phi i8 [ 64, %35 ], [ -128, %32 ]
  %36 = or disjoint i8 %33, %.sink48
  store i8 %36, ptr %30, align 4
  br label %37

37:                                               ; preds = %.sink.split46, %32
  %38 = load ptr, ptr @fc_handle, align 8
  %39 = call i32 @call_dissector_with_data(ptr noundef %38, ptr noundef %29, ptr noundef nonnull %1, ptr noundef %2, ptr noundef nonnull %5) #4
  %40 = call i32 @tvb_captured_length(ptr noundef %0) #4
  ret i32 %40
}